Certificate:
    Data:
        Version: 3 (0x2)
        Serial Number: 1 (0x1)
        Signature Algorithm: sha256WithRSAEncryption
        Issuer: C=CN, ST=ChongQing, O=CQU, OU=Root CA, CN=CQU Root CA
        Validity
            Not Before: Mar 27 09:32:18 2023 GMT
            Not After : Mar 26 09:32:18 2024 GMT
        Subject: C=CN, ST=ChongQing, O=CQU, OU=Root CA, CN=CQU Root CA
        Subject Public Key Info:
            Public Key Algorithm: rsaEncryption
                RSA Public-Key: (2048 bit)
                Modulus:
                    00:d6:87:7b:07:dd:7b:d7:79:5c:83:bc:85:c9:ae:
                    53:e2:1c:ff:3e:79:ef:ae:55:75:7a:13:db:f5:05:
                    bc:a9:2d:ef:a4:da:f3:f8:b7:5b:83:0c:7a:8b:09:
                    25:84:0c:91:0e:2d:78:83:9f:4a:d5:5f:13:68:b4:
                    0a:ec:5d:00:a8:7c:11:db:dd:ee:ad:f2:4e:64:83:
                    fd:d4:d0:34:9e:5b:42:a5:f2:eb:64:4a:fa:d4:80:
                    2f:d0:8e:47:44:3d:53:d6:f7:5a:53:92:6d:73:21:
                    3d:46:56:52:d1:cf:5b:11:dc:a7:b5:3b:3f:0a:ce:
                    b6:0a:df:a8:20:00:32:47:e0:8f:4e:c4:57:b5:73:
                    fd:86:47:37:9d:70:f7:a1:2e:e6:08:39:25:69:aa:
                    fc:92:3d:85:ba:0a:2a:2e:54:8d:4b:c7:c9:6a:23:
                    c4:72:23:1b:b2:23:19:6b:98:aa:89:40:24:b6:67:
                    6c:ed:ab:cd:bb:de:f1:6c:9c:21:29:eb:e9:81:7d:
                    a0:f0:a3:33:ec:1e:14:28:df:8d:95:a9:ad:fe:dc:
                    0f:1a:63:b2:ca:1d:24:09:e6:ca:e4:be:7a:fe:3b:
                    0f:73:83:a0:7d:51:82:4d:70:e4:be:b9:c0:17:21:
                    c2:e1:4c:1b:99:10:d5:ff:2d:32:da:c4:56:52:7d:
                    d6:c1
                Exponent: 65537 (0x10001)
        X509v3 extensions:
            X509v3 Basic Constraints: 
                CA:TRUE
    Signature Algorithm: sha256WithRSAEncryption
         64:ac:b4:1c:8a:2a:99:74:c5:12:e3:ef:bf:62:9d:d9:5b:b9:
         a5:04:a4:61:15:6f:3e:49:cf:7f:f6:4b:93:c3:85:c9:22:6e:
         aa:f5:92:55:c4:48:d4:70:6b:cf:f4:ad:56:41:c1:05:99:92:
         bb:69:55:92:50:7a:b7:2c:e8:a7:28:18:8c:30:f6:5c:44:43:
         6e:73:7c:f1:f8:76:fb:32:df:5f:fa:dd:93:a4:3b:36:c9:b6:
         28:58:59:57:3b:b7:0f:68:ce:b7:8c:d8:54:69:01:3b:d1:b7:
         4f:f8:fb:2a:99:3c:46:7b:23:25:4d:a0:e0:63:1a:5e:96:fd:
         10:6c:a4:3a:c7:31:cf:20:4d:ec:94:dd:7d:c3:1d:57:e1:e2:
         3c:68:c8:97:09:93:b9:85:24:d5:ad:9c:8b:ea:3a:16:b9:71:
         f0:3c:61:cd:a4:4a:3b:59:e0:3c:95:22:87:d1:fd:42:1c:65:
         a3:91:d5:90:d8:05:e1:88:fb:aa:20:34:4b:c3:82:37:33:2b:
         35:33:e2:71:66:59:da:c1:41:0d:54:e8:ef:59:ee:c8:1d:c6:
         b7:1d:f5:ee:53:3c:33:b1:b6:86:da:c3:26:8e:5c:25:43:39:
         fb:b4:98:0e:04:b2:d7:b1:0d:4c:67:ea:e1:3a:f0:81:e2:1e:
         6f:60:da:71
-----BEGIN CERTIFICATE-----
MIIDOTCCAiGgAwIBAgIBATANBgkqhkiG9w0BAQsFADBXMQswCQYDVQQGEwJDTjES
MBAGA1UECAwJQ2hvbmdRaW5nMQwwCgYDVQQKDANDUVUxEDAOBgNVBAsMB1Jvb3Qg
Q0ExFDASBgNVBAMMC0NRVSBSb290IENBMB4XDTIzMDMyNzA5MzIxOFoXDTI0MDMy
NjA5MzIxOFowVzELMAkGA1UEBhMCQ04xEjAQBgNVBAgMCUNob25nUWluZzEMMAoG
A1UECgwDQ1FVMRAwDgYDVQQLDAdSb290IENBMRQwEgYDVQQDDAtDUVUgUm9vdCBD
QTCCASIwDQYJKoZIhvcNAQEBBQADggEPADCCAQoCggEBANaHewfde9d5XIO8hcmu
U+Ic/z55765VdXoT2/UFvKkt76Ta8/i3W4MMeosJJYQMkQ4teIOfStVfE2i0Cuxd
AKh8Edvd7q3yTmSD/dTQNJ5bQqXy62RK+tSAL9COR0Q9U9b3WlOSbXMhPUZWUtHP
WxHcp7U7PwrOtgrfqCAAMkfgj07EV7Vz/YZHN51w96Eu5gg5JWmq/JI9hboKKi5U
jUvHyWojxHIjG7IjGWuYqolAJLZnbO2rzbve8WycISnr6YF9oPCjM+weFCjfjZWp
rf7cDxpjssodJAnmyuS+ev47D3ODoH1Rgk1w5L65wBchwuFMG5kQ1f8tMtrEVlJ9
1sECAwEAAaMQMA4wDAYDVR0TBAUwAwEB/zANBgkqhkiG9w0BAQsFAAOCAQEAZKy0
HIoqmXTFEuPvv2Kd2Vu5pQSkYRVvPknPf/ZLk8OFySJuqvWSVcRI1HBrz/StVkHB
BZmSu2lVklB6tyzopygYjDD2XERDbnN88fh2+zLfX/rdk6Q7Nsm2KFhZVzu3D2jO
t4zYVGkBO9G3T/j7Kpk8RnsjJU2g4GMaXpb9EGykOscxzyBN7JTdfcMdV+HiPGjI
lwmTuYUk1a2ci+o6Frlx8DxhzaRKO1ngPJUih9H9Qhxlo5HVkNgF4Yj7qiA0S8OC
NzMrNTPicWZZ2sFBDVTo71nuyB3Gtx317lM8M7G2htrDJo5cJUM5+7SYDgSy17EN
TGfq4TrwgeIeb2DacQ==
-----END CERTIFICATE-----
