Certificate:
    Data:
        Version: 3 (0x2)
        Serial Number: 2 (0x2)
        Signature Algorithm: sha256WithRSAEncryption
        Issuer: C=CN, ST=ChongQing, O=CQU, OU=Root CA, CN=CQU Root CA
        Validity
            Not Before: Mar 27 09:38:22 2023 GMT
            Not After : Mar 26 09:38:22 2024 GMT
        Subject: C=CN, ST=ChongQing, O=CQU, OU=agent CA, CN=CQU agent CA
        Subject Public Key Info:
            Public Key Algorithm: rsaEncryption
                RSA Public-Key: (2048 bit)
                Modulus:
                    00:d6:9b:14:30:c5:6b:ce:8e:61:fc:44:9e:e7:b4:
                    b1:f8:ad:ea:e6:d7:d6:d2:a5:db:c9:90:f7:c9:42:
                    3a:ff:ba:84:1a:cc:f5:b7:01:2a:77:b9:b3:07:01:
                    4d:0d:c3:c9:1f:0d:17:a4:3f:c0:3d:ec:0c:33:7a:
                    0d:d9:99:7f:74:26:a3:d0:6f:e1:7d:74:36:29:5d:
                    81:b5:96:23:ae:97:dc:4b:f1:0f:c7:2e:cd:3d:ce:
                    e6:2f:be:21:54:01:45:4f:ae:1b:3c:98:73:5c:60:
                    bf:e9:d9:b2:5c:57:b8:c5:67:b4:49:76:e3:1a:da:
                    66:be:8e:41:1d:12:04:8c:84:51:d7:dd:83:f6:65:
                    a2:a9:0a:0b:ec:f7:61:e0:f3:07:5e:18:a2:ea:bc:
                    1e:ae:70:5a:63:37:d8:e3:54:71:4b:12:04:ae:ee:
                    87:86:78:83:1c:73:19:6b:65:0a:77:e8:11:ea:db:
                    44:43:1c:6d:84:d6:75:f5:fc:81:ba:77:81:75:91:
                    8a:f5:2b:3e:f0:84:75:24:62:7f:0a:31:9d:b2:cd:
                    67:19:9b:07:e4:30:a1:78:b0:72:20:4d:85:14:c5:
                    3c:85:29:08:fd:25:12:a3:ea:0b:07:c3:7d:68:fa:
                    2b:bf:26:aa:6e:07:6f:4b:c8:19:be:b9:65:5f:54:
                    ca:e5
                Exponent: 65537 (0x10001)
        X509v3 extensions:
            X509v3 Basic Constraints: 
                CA:TRUE
    Signature Algorithm: sha256WithRSAEncryption
         01:76:e2:40:a4:6d:56:0b:ec:e3:26:84:43:49:04:ca:19:c6:
         fa:f6:7d:27:09:9b:c9:e8:a1:87:4e:46:3c:ee:01:88:b9:53:
         58:2c:5f:ec:65:13:8b:92:d2:f9:4b:1a:1e:fc:b4:18:a5:2c:
         f7:f8:46:1c:72:cd:f2:f0:cc:cf:8b:34:1c:4e:22:b4:f5:4e:
         c8:43:21:32:53:87:ea:7e:a8:d1:17:93:55:03:96:35:16:d5:
         44:74:d2:b8:8d:78:42:b9:cc:a0:fe:a0:d1:72:ed:b3:c7:28:
         82:d6:cc:78:22:e4:bf:d2:1c:ee:b3:16:0b:b1:ab:f2:b4:78:
         0c:9e:dd:22:5e:d5:63:e6:8d:b5:ae:66:7c:36:9c:d1:6e:53:
         0d:8c:be:24:73:52:d4:ed:e7:db:41:2e:12:49:5d:8c:d4:e9:
         c9:b0:ad:69:08:a1:3c:4b:07:48:57:5d:07:b1:07:f7:7b:13:
         6d:b4:9a:e2:4f:82:2d:e6:06:63:4c:55:88:b9:d6:0d:ae:d0:
         7e:92:b0:85:37:f1:d7:4a:22:bf:c0:78:40:95:e6:d1:8c:c4:
         fb:e6:d7:53:ba:b5:c0:33:24:33:66:62:b6:ea:59:d2:c9:b9:
         28:03:00:0c:34:0b:4e:05:24:f2:f0:4e:cc:15:c8:fd:b6:b7:
         07:37:d5:5c
-----BEGIN CERTIFICATE-----
MIIDOzCCAiOgAwIBAgIBAjANBgkqhkiG9w0BAQsFADBXMQswCQYDVQQGEwJDTjES
MBAGA1UECAwJQ2hvbmdRaW5nMQwwCgYDVQQKDANDUVUxEDAOBgNVBAsMB1Jvb3Qg
Q0ExFDASBgNVBAMMC0NRVSBSb290IENBMB4XDTIzMDMyNzA5MzgyMloXDTI0MDMy
NjA5MzgyMlowWTELMAkGA1UEBhMCQ04xEjAQBgNVBAgMCUNob25nUWluZzEMMAoG
A1UECgwDQ1FVMREwDwYDVQQLDAhhZ2VudCBDQTEVMBMGA1UEAwwMQ1FVIGFnZW50
IENBMIIBIjANBgkqhkiG9w0BAQEFAAOCAQ8AMIIBCgKCAQEA1psUMMVrzo5h/ESe
57Sx+K3q5tfW0qXbyZD3yUI6/7qEGsz1twEqd7mzBwFNDcPJHw0XpD/APewMM3oN
2Zl/dCaj0G/hfXQ2KV2BtZYjrpfcS/EPxy7NPc7mL74hVAFFT64bPJhzXGC/6dmy
XFe4xWe0SXbjGtpmvo5BHRIEjIRR192D9mWiqQoL7Pdh4PMHXhii6rwernBaYzfY
41RxSxIEru6HhniDHHMZa2UKd+gR6ttEQxxthNZ19fyBuneBdZGK9Ss+8IR1JGJ/
CjGdss1nGZsH5DCheLByIE2FFMU8hSkI/SUSo+oLB8N9aPorvyaqbgdvS8gZvrll
X1TK5QIDAQABoxAwDjAMBgNVHRMEBTADAQH/MA0GCSqGSIb3DQEBCwUAA4IBAQAB
duJApG1WC+zjJoRDSQTKGcb69n0nCZvJ6KGHTkY87gGIuVNYLF/sZROLktL5Sxoe
/LQYpSz3+EYccs3y8MzPizQcTiK09U7IQyEyU4fqfqjRF5NVA5Y1FtVEdNK4jXhC
ucyg/qDRcu2zxyiC1sx4IuS/0hzusxYLsavytHgMnt0iXtVj5o21rmZ8NpzRblMN
jL4kc1LU7efbQS4SSV2M1OnJsK1pCKE8SwdIV10HsQf3exNttJriT4It5gZjTFWI
udYNrtB+krCFN/HXSiK/wHhAlebRjMT75tdTurXAMyQzZmK26lnSybkoAwAMNAtO
BSTy8E7MFcj9trcHN9Vc
-----END CERTIFICATE-----
